target datalayout = "e-m:e-p270:32:32-p271:32:32-p272:64:64-i64:64-i128:128-f80:128-n8:16:32:64-S128"
target triple = "x86_64-unknown-linux-gnu"

%"struct.EA::Thread::ThreadTime" = type { %struct.timespec }
%struct.timespec = type { i64, i64 }

@.str.7 = private unnamed_addr constant [3 x i8] c".\0A\00", align 1

; Function Attrs: mustprogress nounwind uwtable
define linkonce_odr dso_local noundef nonnull align 8 dereferenceable(16) ptr @_ZN2EA6Thread10ThreadTimemIERKS1_(ptr noundef nonnull align 8 dereferenceable(16) %this, ptr noundef nonnull align 8 dereferenceable(16) %tt) #1 comdat align 2 {
entry:
  %this.addr = alloca ptr, align 8
  %tt.addr = alloca ptr, align 8
  store ptr %this, ptr %this.addr, align 8
  store ptr %tt, ptr %tt.addr, align 8
  %this1 = load ptr, ptr %this.addr, align 8
  %0 = load ptr, ptr %tt.addr, align 8
  %tv_sec = getelementptr inbounds %struct.timespec, ptr %0, i32 0, i32 0
  %1 = load i64, ptr %tv_sec, align 8
  %tv_sec2 = getelementptr inbounds %struct.timespec, ptr %this1, i32 0, i32 0
  %2 = load i64, ptr %tv_sec2, align 8
  %sub = sub nsw i64 %2, %1
  store i64 %sub, ptr %tv_sec2, align 8
  %3 = load ptr, ptr %tt.addr, align 8
  %tv_nsec = getelementptr inbounds %struct.timespec, ptr %3, i32 0, i32 1
  %4 = load i64, ptr %tv_nsec, align 8
  %tv_nsec3 = getelementptr inbounds %struct.timespec, ptr %this1, i32 0, i32 1
  %5 = load i64, ptr %tv_nsec3, align 8
  %sub4 = sub nsw i64 %5, %4
  store i64 %sub4, ptr %tv_nsec3, align 8
  %tv_nsec5 = getelementptr inbounds %struct.timespec, ptr %this1, i32 0, i32 1
  %6 = load i64, ptr %tv_nsec5, align 8
  %cmp = icmp slt i64 %6, 0
  br i1 %cmp, label %if.then, label %if.end

if.then:                                          ; preds = %entry
  %tv_sec6 = getelementptr inbounds %struct.timespec, ptr %this1, i32 0, i32 0
  %7 = load i64, ptr %tv_sec6, align 8
  %dec = add nsw i64 %7, -1
  store i64 %dec, ptr %tv_sec6, align 8
  %tv_nsec7 = getelementptr inbounds %struct.timespec, ptr %this1, i32 0, i32 1
  %8 = load i64, ptr %tv_nsec7, align 8
  %add = add nsw i64 %8, 1000000000
  store i64 %add, ptr %tv_nsec7, align 8
  br label %if.end

if.end:                                           ; preds = %if.then, %entry
  ret ptr %this1
}

; Function Attrs: mustprogress nounwind uwtable
define linkonce_odr dso_local noundef nonnull align 8 dereferenceable(16) ptr @_ZN2EA6Thread10ThreadTimepLERKl(ptr noundef nonnull align 8 dereferenceable(16) %this, ptr noundef nonnull align 8 dereferenceable(8) %nMilliseconds) #1 comdat align 2 {
entry:
  %this.addr = alloca ptr, align 8
  %nMilliseconds.addr = alloca ptr, align 8
  %lTemp = alloca i64, align 8
  store ptr %this, ptr %this.addr, align 8
  store ptr %nMilliseconds, ptr %nMilliseconds.addr, align 8
  %this1 = load ptr, ptr %this.addr, align 8
  %0 = load ptr, ptr %nMilliseconds.addr, align 8
  %1 = load i64, ptr %0, align 8
  %div = sdiv i64 %1, 1000
  store i64 %div, ptr %lTemp, align 8
  %2 = load i64, ptr %lTemp, align 8
  %tv_sec = getelementptr inbounds %struct.timespec, ptr %this1, i32 0, i32 0
  %3 = load i64, ptr %tv_sec, align 8
  %add = add nsw i64 %3, %2
  store i64 %add, ptr %tv_sec, align 8
  %4 = load ptr, ptr %nMilliseconds.addr, align 8
  %5 = load i64, ptr %4, align 8
  %6 = load i64, ptr %lTemp, align 8
  %mul = mul nsw i64 %6, 1000
  %sub = sub nsw i64 %5, %mul
  %mul2 = mul nsw i64 %sub, 1000000
  %tv_nsec = getelementptr inbounds %struct.timespec, ptr %this1, i32 0, i32 1
  %7 = load i64, ptr %tv_nsec, align 8
  %add3 = add nsw i64 %7, %mul2
  store i64 %add3, ptr %tv_nsec, align 8
  %tv_nsec4 = getelementptr inbounds %struct.timespec, ptr %this1, i32 0, i32 1
  %8 = load i64, ptr %tv_nsec4, align 8
  %cmp = icmp sge i64 %8, 1000000000
  br i1 %cmp, label %if.then, label %if.end

if.then:                                          ; preds = %entry
  %tv_sec5 = getelementptr inbounds %struct.timespec, ptr %this1, i32 0, i32 0
  %9 = load i64, ptr %tv_sec5, align 8
  %inc = add nsw i64 %9, 1
  store i64 %inc, ptr %tv_sec5, align 8
  %tv_nsec6 = getelementptr inbounds %struct.timespec, ptr %this1, i32 0, i32 1
  %10 = load i64, ptr %tv_nsec6, align 8
  %sub7 = sub nsw i64 %10, 1000000000
  store i64 %sub7, ptr %tv_nsec6, align 8
  br label %if.end

if.end:                                           ; preds = %if.then, %entry
  ret ptr %this1
}

; Function Attrs: mustprogress uwtable
define linkonce_odr dso_local { i64, i64 } @_ZN2EA6ThreadmiERKNS0_10ThreadTimeES3_(ptr noundef nonnull align 8 dereferenceable(16) %tt1, ptr noundef nonnull align 8 dereferenceable(16) %tt2) #2 comdat {
entry:
  %retval = alloca %"struct.EA::Thread::ThreadTime", align 8
  %tt1.addr = alloca ptr, align 8
  %tt2.addr = alloca ptr, align 8
  store ptr %tt1, ptr %tt1.addr, align 8
  store ptr %tt2, ptr %tt2.addr, align 8
  %0 = load ptr, ptr %tt1.addr, align 8
  call void @llvm.memcpy.p0.p0.i64(ptr align 8 %retval, ptr align 8 %0, i64 16, i1 false)
  %1 = load ptr, ptr %tt2.addr, align 8
  %call = call noundef nonnull align 8 dereferenceable(16) ptr @_ZN2EA6Thread10ThreadTimemIERKS1_(ptr noundef nonnull align 8 dereferenceable(16) %retval, ptr noundef nonnull align 8 dereferenceable(16) %1)
  %coerce.dive = getelementptr inbounds %"struct.EA::Thread::ThreadTime", ptr %retval, i32 0, i32 0
  %2 = load { i64, i64 }, ptr %coerce.dive, align 8
  ret { i64, i64 } %2
}

; Function Attrs: mustprogress nounwind uwtable
define linkonce_odr dso_local noundef zeroext i1 @_ZN2EA6ThreadltERKNS0_10ThreadTimeES3_(ptr noundef nonnull align 8 dereferenceable(16) %tt1, ptr noundef nonnull align 8 dereferenceable(16) %tt2) #1 comdat {
entry:
  %tt1.addr = alloca ptr, align 8
  %tt2.addr = alloca ptr, align 8
  store ptr %tt1, ptr %tt1.addr, align 8
  store ptr %tt2, ptr %tt2.addr, align 8
  %0 = load ptr, ptr %tt1.addr, align 8
  %tv_sec = getelementptr inbounds %struct.timespec, ptr %0, i32 0, i32 0
  %1 = load i64, ptr %tv_sec, align 8
  %2 = load ptr, ptr %tt2.addr, align 8
  %tv_sec1 = getelementptr inbounds %struct.timespec, ptr %2, i32 0, i32 0
  %3 = load i64, ptr %tv_sec1, align 8
  %cmp = icmp eq i64 %1, %3
  br i1 %cmp, label %cond.true, label %cond.false

cond.true:                                        ; preds = %entry
  %4 = load ptr, ptr %tt1.addr, align 8
  %tv_nsec = getelementptr inbounds %struct.timespec, ptr %4, i32 0, i32 1
  %5 = load i64, ptr %tv_nsec, align 8
  %6 = load ptr, ptr %tt2.addr, align 8
  %tv_nsec2 = getelementptr inbounds %struct.timespec, ptr %6, i32 0, i32 1
  %7 = load i64, ptr %tv_nsec2, align 8
  %cmp3 = icmp slt i64 %5, %7
  br label %cond.end

cond.false:                                       ; preds = %entry
  %8 = load ptr, ptr %tt1.addr, align 8
  %tv_sec4 = getelementptr inbounds %struct.timespec, ptr %8, i32 0, i32 0
  %9 = load i64, ptr %tv_sec4, align 8
  %10 = load ptr, ptr %tt2.addr, align 8
  %tv_sec5 = getelementptr inbounds %struct.timespec, ptr %10, i32 0, i32 0
  %11 = load i64, ptr %tv_sec5, align 8
  %cmp6 = icmp slt i64 %9, %11
  br label %cond.end

cond.end:                                         ; preds = %cond.false, %cond.true
  %cond = phi i1 [ %cmp3, %cond.true ], [ %cmp6, %cond.false ]
  ret i1 %cond
}

; Function Attrs: mustprogress nounwind uwtable
define linkonce_odr dso_local noundef zeroext i1 @_ZN2EA6ThreadgtERKNS0_10ThreadTimeES3_(ptr noundef nonnull align 8 dereferenceable(16) %tt1, ptr noundef nonnull align 8 dereferenceable(16) %tt2) #1 comdat {
entry:
  %tt1.addr = alloca ptr, align 8
  %tt2.addr = alloca ptr, align 8
  store ptr %tt1, ptr %tt1.addr, align 8
  store ptr %tt2, ptr %tt2.addr, align 8
  %0 = load ptr, ptr %tt1.addr, align 8
  %tv_sec = getelementptr inbounds %struct.timespec, ptr %0, i32 0, i32 0
  %1 = load i64, ptr %tv_sec, align 8
  %2 = load ptr, ptr %tt2.addr, align 8
  %tv_sec1 = getelementptr inbounds %struct.timespec, ptr %2, i32 0, i32 0
  %3 = load i64, ptr %tv_sec1, align 8
  %cmp = icmp eq i64 %1, %3
  br i1 %cmp, label %cond.true, label %cond.false

cond.true:                                        ; preds = %entry
  %4 = load ptr, ptr %tt1.addr, align 8
  %tv_nsec = getelementptr inbounds %struct.timespec, ptr %4, i32 0, i32 1
  %5 = load i64, ptr %tv_nsec, align 8
  %6 = load ptr, ptr %tt2.addr, align 8
  %tv_nsec2 = getelementptr inbounds %struct.timespec, ptr %6, i32 0, i32 1
  %7 = load i64, ptr %tv_nsec2, align 8
  %cmp3 = icmp sgt i64 %5, %7
  br label %cond.end

cond.false:                                       ; preds = %entry
  %8 = load ptr, ptr %tt1.addr, align 8
  %tv_sec4 = getelementptr inbounds %struct.timespec, ptr %8, i32 0, i32 0
  %9 = load i64, ptr %tv_sec4, align 8
  %10 = load ptr, ptr %tt2.addr, align 8
  %tv_sec5 = getelementptr inbounds %struct.timespec, ptr %10, i32 0, i32 0
  %11 = load i64, ptr %tv_sec5, align 8
  %cmp6 = icmp sgt i64 %9, %11
  br label %cond.end

cond.end:                                         ; preds = %cond.false, %cond.true
  %cond = phi i1 [ %cmp3, %cond.true ], [ %cmp6, %cond.false ]
  ret i1 %cond
}

; Function Attrs: mustprogress nounwind uwtable
define linkonce_odr dso_local void @_ZN2EA6Thread10ThreadTimeC2ERKl(ptr noundef nonnull align 8 dereferenceable(16) %this, ptr noundef nonnull align 8 dereferenceable(8) %nMilliseconds) unnamed_addr #1 comdat align 2 {
entry:
  %this.addr = alloca ptr, align 8
  %nMilliseconds.addr = alloca ptr, align 8
  store ptr %this, ptr %this.addr, align 8
  store ptr %nMilliseconds, ptr %nMilliseconds.addr, align 8
  %this1 = load ptr, ptr %this.addr, align 8
  %0 = load ptr, ptr %nMilliseconds.addr, align 8
  %1 = load i64, ptr %0, align 8
  %div = sdiv i64 %1, 1000
  %tv_sec = getelementptr inbounds %struct.timespec, ptr %this1, i32 0, i32 0
  store i64 %div, ptr %tv_sec, align 8
  %2 = load ptr, ptr %nMilliseconds.addr, align 8
  %3 = load i64, ptr %2, align 8
  %tv_sec2 = getelementptr inbounds %struct.timespec, ptr %this1, i32 0, i32 0
  %4 = load i64, ptr %tv_sec2, align 8
  %mul = mul nsw i64 %4, 1000
  %sub = sub nsw i64 %3, %mul
  %mul3 = mul nsw i64 %sub, 1000000
  %tv_nsec = getelementptr inbounds %struct.timespec, ptr %this1, i32 0, i32 1
  store i64 %mul3, ptr %tv_nsec, align 8
  ret void
}

; Function Attrs: mustprogress uwtable
define linkonce_odr dso_local { i64, i64 } @_ZN2EA6ThreadplERKNS0_10ThreadTimeERKl(ptr noundef nonnull align 8 dereferenceable(16) %tt, ptr noundef nonnull align 8 dereferenceable(8) %nMilliseconds) #2 comdat {
entry:
  %retval = alloca %"struct.EA::Thread::ThreadTime", align 8
  %tt.addr = alloca ptr, align 8
  %nMilliseconds.addr = alloca ptr, align 8
  store ptr %tt, ptr %tt.addr, align 8
  store ptr %nMilliseconds, ptr %nMilliseconds.addr, align 8
  %0 = load ptr, ptr %tt.addr, align 8
  call void @llvm.memcpy.p0.p0.i64(ptr align 8 %retval, ptr align 8 %0, i64 16, i1 false)
  %1 = load ptr, ptr %nMilliseconds.addr, align 8
  %call = call noundef nonnull align 8 dereferenceable(16) ptr @_ZN2EA6Thread10ThreadTimepLERKl(ptr noundef nonnull align 8 dereferenceable(16) %retval, ptr noundef nonnull align 8 dereferenceable(8) %1)
  %coerce.dive = getelementptr inbounds %"struct.EA::Thread::ThreadTime", ptr %retval, i32 0, i32 0
  %2 = load { i64, i64 }, ptr %coerce.dive, align 8
  ret { i64, i64 } %2
}

; Function Attrs: mustprogress nounwind uwtable
define linkonce_odr dso_local void @_ZN2EA6Thread10ThreadTimeC2Ev(ptr noundef nonnull align 8 dereferenceable(16) %this) unnamed_addr #1 comdat align 2 {
entry:
  %this.addr = alloca ptr, align 8
  store ptr %this, ptr %this.addr, align 8
  %this1 = load ptr, ptr %this.addr, align 8
  %tv_sec = getelementptr inbounds %struct.timespec, ptr %this1, i32 0, i32 0
  store i64 0, ptr %tv_sec, align 8
  %tv_nsec = getelementptr inbounds %struct.timespec, ptr %this1, i32 0, i32 1
  store i64 0, ptr %tv_nsec, align 8
  ret void
}

; Function Attrs: mustprogress uwtable
define dso_local noundef i32 @_ZN2EA8UnitTest17ThreadSleepRandomEjjb(i32 noundef %nMinSleepMS, i32 noundef %nMaxSleepMS, i1 noundef zeroext %bVerboseOutput) #2 {
entry:
  %nMinSleepMS.addr = alloca i32, align 4
  %nMaxSleepMS.addr = alloca i32, align 4
  %bVerboseOutput.addr = alloca i8, align 1
  %nSleepTime = alloca i32, align 4
  %nCurrentTime = alloca %"struct.EA::Thread::ThreadTime", align 8
  %nInitialTime = alloca %"struct.EA::Thread::ThreadTime", align 8
  %nTimeEnd = alloca %"struct.EA::Thread::ThreadTime", align 8
  %ref.tmp = alloca i64, align 8
  %nLastReportTime = alloca %"struct.EA::Thread::ThreadTime", align 8
  %nThreadSleepDuration = alloca %"struct.EA::Thread::ThreadTime", align 8
  %ref.tmp5 = alloca i64, align 8
  %ref.tmp8 = alloca %"struct.EA::Thread::ThreadTime", align 8
  %ref.tmp9 = alloca i64, align 8
  %ref.tmp12 = alloca %"struct.EA::Thread::ThreadTime", align 8
  %ref.tmp13 = alloca i64, align 8
  %ref.tmp16 = alloca %"struct.EA::Thread::ThreadTime", align 8
  %ref.tmp17 = alloca i64, align 8
  %ref.tmp19 = alloca %"struct.EA::Thread::ThreadTime", align 8
  %ref.tmp23 = alloca %"struct.EA::Thread::ThreadTime", align 8
  %ref.tmp26 = alloca %"struct.EA::Thread::ThreadTime", align 8
  %ref.tmp27 = alloca i64, align 8
  store i32 %nMinSleepMS, ptr %nMinSleepMS.addr, align 4
  store i32 %nMaxSleepMS, ptr %nMaxSleepMS.addr, align 4
  %frombool = zext i1 %bVerboseOutput to i8
  store i8 %frombool, ptr %bVerboseOutput.addr, align 1
  %0 = load i32, ptr %nMinSleepMS.addr, align 4
  store i32 %0, ptr %nSleepTime, align 4
  %1 = load i32, ptr %nMaxSleepMS.addr, align 4
  %2 = load i32, ptr %nMinSleepMS.addr, align 4
  %sub = sub nsw i32 %1, %2
  %cmp = icmp sgt i32 %sub, 0
  br i1 %cmp, label %if.then, label %if.end

if.then:                                          ; preds = %entry
  %call = call i32 @rand() #13
  %3 = load i32, ptr %nMaxSleepMS.addr, align 4
  %4 = load i32, ptr %nMinSleepMS.addr, align 4
  %sub1 = sub i32 %3, %4
  %rem = urem i32 %call, %sub1
  %5 = load i32, ptr %nSleepTime, align 4
  %add = add i32 %5, %rem
  store i32 %add, ptr %nSleepTime, align 4
  br label %if.end

if.end:                                           ; preds = %if.then, %entry
  call void @_ZN2EA6Thread10ThreadTimeC2Ev(ptr noundef nonnull align 8 dereferenceable(16) %nCurrentTime)
  %call2 = call { i64, i64 } @_ZN2EA6Thread13GetThreadTimeEv()
  %coerce.dive = getelementptr inbounds %"struct.EA::Thread::ThreadTime", ptr %nInitialTime, i32 0, i32 0
  %6 = getelementptr inbounds { i64, i64 }, ptr %coerce.dive, i32 0, i32 0
  %7 = extractvalue { i64, i64 } %call2, 0
  store i64 %7, ptr %6, align 8
  %8 = getelementptr inbounds { i64, i64 }, ptr %coerce.dive, i32 0, i32 1
  %9 = extractvalue { i64, i64 } %call2, 1
  store i64 %9, ptr %8, align 8
  %10 = load i32, ptr %nSleepTime, align 4
  %conv = zext i32 %10 to i64
  store i64 %conv, ptr %ref.tmp, align 8
  %call3 = call { i64, i64 } @_ZN2EA6ThreadplERKNS0_10ThreadTimeERKl(ptr noundef nonnull align 8 dereferenceable(16) %nInitialTime, ptr noundef nonnull align 8 dereferenceable(8) %ref.tmp)
  %coerce.dive4 = getelementptr inbounds %"struct.EA::Thread::ThreadTime", ptr %nTimeEnd, i32 0, i32 0
  %11 = getelementptr inbounds { i64, i64 }, ptr %coerce.dive4, i32 0, i32 0
  %12 = extractvalue { i64, i64 } %call3, 0
  store i64 %12, ptr %11, align 8
  %13 = getelementptr inbounds { i64, i64 }, ptr %coerce.dive4, i32 0, i32 1
  %14 = extractvalue { i64, i64 } %call3, 1
  store i64 %14, ptr %13, align 8
  call void @llvm.memcpy.p0.p0.i64(ptr align 8 %nLastReportTime, ptr align 8 %nInitialTime, i64 16, i1 false)
  store i64 25, ptr %ref.tmp5, align 8
  call void @_ZN2EA6Thread10ThreadTimeC2ERKl(ptr noundef nonnull align 8 dereferenceable(16) %nThreadSleepDuration, ptr noundef nonnull align 8 dereferenceable(8) %ref.tmp5)
  %15 = load i32, ptr %nSleepTime, align 4
  %cmp6 = icmp ugt i32 %15, 100
  br i1 %cmp6, label %if.then7, label %if.end11

if.then7:                                         ; preds = %if.end
  %16 = load i32, ptr %nSleepTime, align 4
  %div = udiv i32 %16, 4
  %conv10 = zext i32 %div to i64
  store i64 %conv10, ptr %ref.tmp9, align 8
  call void @_ZN2EA6Thread10ThreadTimeC2ERKl(ptr noundef nonnull align 8 dereferenceable(16) %ref.tmp8, ptr noundef nonnull align 8 dereferenceable(8) %ref.tmp9)
  call void @llvm.memcpy.p0.p0.i64(ptr align 8 %nThreadSleepDuration, ptr align 8 %ref.tmp8, i64 16, i1 false)
  br label %if.end11

if.end11:                                         ; preds = %if.then7, %if.end
  store i64 2000, ptr %ref.tmp13, align 8
  call void @_ZN2EA6Thread10ThreadTimeC2ERKl(ptr noundef nonnull align 8 dereferenceable(16) %ref.tmp12, ptr noundef nonnull align 8 dereferenceable(8) %ref.tmp13)
  %call14 = call noundef zeroext i1 @_ZN2EA6ThreadgtERKNS0_10ThreadTimeES3_(ptr noundef nonnull align 8 dereferenceable(16) %nThreadSleepDuration, ptr noundef nonnull align 8 dereferenceable(16) %ref.tmp12)
  br i1 %call14, label %if.then15, label %if.end18

if.then15:                                        ; preds = %if.end11
  store i64 2000, ptr %ref.tmp17, align 8
  call void @_ZN2EA6Thread10ThreadTimeC2ERKl(ptr noundef nonnull align 8 dereferenceable(16) %ref.tmp16, ptr noundef nonnull align 8 dereferenceable(8) %ref.tmp17)
  call void @llvm.memcpy.p0.p0.i64(ptr align 8 %nThreadSleepDuration, ptr align 8 %ref.tmp16, i64 16, i1 false)
  br label %if.end18

if.end18:                                         ; preds = %if.then15, %if.end11
  br label %while.cond

while.cond:                                       ; preds = %if.end32, %if.end18
  %call20 = call { i64, i64 } @_ZN2EA6Thread13GetThreadTimeEv()
  %coerce.dive21 = getelementptr inbounds %"struct.EA::Thread::ThreadTime", ptr %ref.tmp19, i32 0, i32 0
  %17 = getelementptr inbounds { i64, i64 }, ptr %coerce.dive21, i32 0, i32 0
  %18 = extractvalue { i64, i64 } %call20, 0
  store i64 %18, ptr %17, align 8
  %19 = getelementptr inbounds { i64, i64 }, ptr %coerce.dive21, i32 0, i32 1
  %20 = extractvalue { i64, i64 } %call20, 1
  store i64 %20, ptr %19, align 8
  call void @llvm.memcpy.p0.p0.i64(ptr align 8 %nCurrentTime, ptr align 8 %ref.tmp19, i64 16, i1 false)
  %call22 = call noundef zeroext i1 @_ZN2EA6ThreadltERKNS0_10ThreadTimeES3_(ptr noundef nonnull align 8 dereferenceable(16) %nCurrentTime, ptr noundef nonnull align 8 dereferenceable(16) %nTimeEnd)
  br i1 %call22, label %while.body, label %while.end

while.body:                                       ; preds = %while.cond
  %call24 = call { i64, i64 } @_ZN2EA6ThreadmiERKNS0_10ThreadTimeES3_(ptr noundef nonnull align 8 dereferenceable(16) %nCurrentTime, ptr noundef nonnull align 8 dereferenceable(16) %nLastReportTime)
  %coerce.dive25 = getelementptr inbounds %"struct.EA::Thread::ThreadTime", ptr %ref.tmp23, i32 0, i32 0
  %21 = getelementptr inbounds { i64, i64 }, ptr %coerce.dive25, i32 0, i32 0
  %22 = extractvalue { i64, i64 } %call24, 0
  store i64 %22, ptr %21, align 8
  %23 = getelementptr inbounds { i64, i64 }, ptr %coerce.dive25, i32 0, i32 1
  %24 = extractvalue { i64, i64 } %call24, 1
  store i64 %24, ptr %23, align 8
  store i64 10000, ptr %ref.tmp27, align 8
  call void @_ZN2EA6Thread10ThreadTimeC2ERKl(ptr noundef nonnull align 8 dereferenceable(16) %ref.tmp26, ptr noundef nonnull align 8 dereferenceable(8) %ref.tmp27)
  %call28 = call noundef zeroext i1 @_ZN2EA6ThreadgtERKNS0_10ThreadTimeES3_(ptr noundef nonnull align 8 dereferenceable(16) %ref.tmp23, ptr noundef nonnull align 8 dereferenceable(16) %ref.tmp26)
  br i1 %call28, label %if.then29, label %if.end32

if.then29:                                        ; preds = %while.body
  call void @llvm.memcpy.p0.p0.i64(ptr align 8 %nLastReportTime, ptr align 8 %nCurrentTime, i64 16, i1 false)
  %25 = load i8, ptr %bVerboseOutput.addr, align 1
  %tobool = trunc i8 %25 to i1
  br i1 %tobool, label %if.then30, label %if.end31

if.then30:                                        ; preds = %if.then29
  call void (ptr, ...) @_ZN2EA6EAMain6ReportEPKcz(ptr noundef @.str.7)
  br label %if.end31

if.end31:                                         ; preds = %if.then30, %if.then29
  br label %if.end32

if.end32:                                         ; preds = %if.end31, %while.body
  call void @_ZN2EA6Thread11ThreadSleepERKNS0_10ThreadTimeE(ptr noundef nonnull align 8 dereferenceable(16) %nThreadSleepDuration)
  br label %while.cond, !llvm.loop !5

while.end:                                        ; preds = %while.cond
  %26 = load i32, ptr %nSleepTime, align 4
  ret i32 %26
}