; Function Attrs: mustprogress uwtable
define dso_local noundef i32 @_ZN2EA8UnitTest17ThreadSleepRandomEjjb(i32 noundef %nMinSleepMS, i32 noundef %nMaxSleepMS, i1 noundef zeroext %bVerboseOutput) local_unnamed_addr #0 {
entry:
  %nThreadSleepDuration = alloca %"struct.EA::Thread::ThreadTime", align 8
  %sub = sub nsw i32 %nMaxSleepMS, %nMinSleepMS
  %cmp = icmp sgt i32 %sub, 0
  br i1 %cmp, label %if.then, label %if.end

if.then:                                          ; preds = %entry
  %call = tail call i32 @rand() #32
  %rem = urem i32 %call, %sub
  %rem.fr = freeze i32 %rem
  %add = add i32 %rem.fr, %nMinSleepMS
  br label %if.end

if.end:                                           ; preds = %if.then, %entry
  %nSleepTime.0 = phi i32 [ %add, %if.then ], [ %nMinSleepMS, %entry ]
  %call2 = tail call { i64, i64 } @_ZN2EA6Thread13GetThreadTimeEv()
  %0 = extractvalue { i64, i64 } %call2, 0
  %1 = extractvalue { i64, i64 } %call2, 1
  %conv = zext i32 %nSleepTime.0 to i64
  %div.i.i6465 = udiv i32 %nSleepTime.0, 1000
  %div.i.i64.zext = zext nneg i32 %div.i.i6465 to i64
  %add.i.i = add nsw i64 %0, %div.i.i64.zext
  %mul.neg.i.i = mul nsw i64 %div.i.i64.zext, -1000
  %sub.i.i = add nsw i64 %mul.neg.i.i, %conv
  %mul2.i.i = mul nsw i64 %sub.i.i, 1000000
  %add3.i.i = add nsw i64 %mul2.i.i, %1
  %cmp.i.i = icmp sgt i64 %add3.i.i, 999999999
  %sub7.i.i = add nsw i64 %add3.i.i, -1000000000
  %retval.sroa.5.0.i = select i1 %cmp.i.i, i64 %sub7.i.i, i64 %add3.i.i
  %inc.i.i = zext i1 %cmp.i.i to i64
  %retval.sroa.0.0.i = add nsw i64 %add.i.i, %inc.i.i
  store i64 0, ptr %nThreadSleepDuration, align 8
  %tv_nsec.i = getelementptr inbounds i8, ptr %nThreadSleepDuration, i64 8
  store i64 25000000, ptr %tv_nsec.i, align 8
  %cmp6 = icmp ugt i32 %nSleepTime.0, 100
  br i1 %cmp6, label %if.end11, label %if.end18

if.end11:                                         ; preds = %if.end
  %div8 = lshr i32 %nSleepTime.0, 2
  %conv10 = zext nneg i32 %div8 to i64
  %div.i96667 = udiv i32 %nSleepTime.0, 4000
  %div.i966.zext = zext nneg i32 %div.i96667 to i64
  %mul.neg.i10 = mul nsw i64 %div.i966.zext, -1000
  %sub.i11 = add nsw i64 %mul.neg.i10, %conv10
  %mul3.i12 = mul nsw i64 %sub.i11, 1000000
  store i64 %div.i966.zext, ptr %nThreadSleepDuration, align 8
  store i64 %mul3.i12, ptr %tv_nsec.i, align 8
  %nSleepTime.0.off = add i32 %nSleepTime.0, -8000
  %cmp.i = icmp ult i32 %nSleepTime.0.off, 4000
  br i1 %cmp.i, label %2, label %4

2:                                                ; preds = %if.end11
  %3 = icmp sgt i64 %sub.i11, 0
  br i1 %3, label %if.then15, label %if.end18

4:                                                ; preds = %if.end11
  %cmp6.i = icmp ugt i32 %nSleepTime.0, 11999
  br i1 %cmp6.i, label %if.then15, label %if.end18

if.then15:                                        ; preds = %2, %4
  store i64 2, ptr %nThreadSleepDuration, align 8
  store i64 0, ptr %tv_nsec.i, align 8
  br label %if.end18

if.end18:                                         ; preds = %if.end, %2, %if.then15, %4
  %call2068 = tail call { i64, i64 } @_ZN2EA6Thread13GetThreadTimeEv()
  %5 = extractvalue { i64, i64 } %call2068, 0
  %6 = extractvalue { i64, i64 } %call2068, 1
  %cmp.i2569 = icmp eq i64 %5, %retval.sroa.0.0.i
  %cmp3.i2870 = icmp slt i64 %6, %retval.sroa.5.0.i
  %cmp6.i2971 = icmp slt i64 %5, %retval.sroa.0.0.i
  %cond.i3072 = select i1 %cmp.i2569, i1 %cmp3.i2870, i1 %cmp6.i2971
  br i1 %cond.i3072, label %while.body.lr.ph, label %while.end

while.body.lr.ph:                                 ; preds = %if.end18
  br i1 %bVerboseOutput, label %while.body, label %while.body.us

while.body.us:                                    ; preds = %while.body.lr.ph, %while.body.us
  call void @_ZN2EA6Thread11ThreadSleepERKNS0_10ThreadTimeE(ptr noundef nonnull align 8 dereferenceable(16) %nThreadSleepDuration)
  %call20.us = call { i64, i64 } @_ZN2EA6Thread13GetThreadTimeEv()
  %7 = extractvalue { i64, i64 } %call20.us, 0
  %8 = extractvalue { i64, i64 } %call20.us, 1
  %cmp.i25.us = icmp eq i64 %7, %retval.sroa.0.0.i
  %cmp3.i28.us = icmp slt i64 %8, %retval.sroa.5.0.i
  %cmp6.i29.us = icmp slt i64 %7, %retval.sroa.0.0.i
  %cond.i30.us = select i1 %cmp.i25.us, i1 %cmp3.i28.us, i1 %cmp6.i29.us
  br i1 %cond.i30.us, label %while.body.us, label %while.end, !llvm.loop !5

while.body:                                       ; preds = %while.body.lr.ph, %if.end32
  %9 = phi i64 [ %12, %if.end32 ], [ %6, %while.body.lr.ph ]
  %10 = phi i64 [ %11, %if.end32 ], [ %5, %while.body.lr.ph ]
  %nLastReportTime.sroa.3.074 = phi i64 [ %nLastReportTime.sroa.3.1, %if.end32 ], [ %1, %while.body.lr.ph ]
  %nLastReportTime.sroa.0.073 = phi i64 [ %nLastReportTime.sroa.0.1, %if.end32 ], [ %0, %while.body.lr.ph ]
  %sub.i.i33 = sub i64 %10, %nLastReportTime.sroa.0.073
  %sub4.i.i = sub nsw i64 %9, %nLastReportTime.sroa.3.074
  %cmp.i.i34 = icmp slt i64 %sub4.i.i, 0
  %add.i.i35 = add nsw i64 %sub4.i.i, 1000000000
  %retval.sroa.5.0.i36 = select i1 %cmp.i.i34, i64 %add.i.i35, i64 %sub4.i.i
  %sub4.i.lobit.i = ashr i64 %sub4.i.i, 63
  %retval.sroa.0.0.i37 = add nsw i64 %sub4.i.lobit.i, %sub.i.i33
  %cmp.i45 = icmp eq i64 %retval.sroa.0.0.i37, 10
  %cmp3.i48 = icmp sgt i64 %retval.sroa.5.0.i36, 0
  %cmp6.i49 = icmp sgt i64 %retval.sroa.0.0.i37, 10
  %cond.i50 = select i1 %cmp.i45, i1 %cmp3.i48, i1 %cmp6.i49
  br i1 %cond.i50, label %if.then30, label %if.end32

if.then30:                                        ; preds = %while.body
  call void (ptr, ...) @_ZN2EA6EAMain6ReportEPKcz(ptr noundef nonnull @.str.7)
  br label %if.end32

if.end32:                                         ; preds = %while.body, %if.then30
  %nLastReportTime.sroa.0.1 = phi i64 [ %10, %if.then30 ], [ %nLastReportTime.sroa.0.073, %while.body ]
  %nLastReportTime.sroa.3.1 = phi i64 [ %9, %if.then30 ], [ %nLastReportTime.sroa.3.074, %while.body ]
  call void @_ZN2EA6Thread11ThreadSleepERKNS0_10ThreadTimeE(ptr noundef nonnull align 8 dereferenceable(16) %nThreadSleepDuration)
  %call20 = call { i64, i64 } @_ZN2EA6Thread13GetThreadTimeEv()
  %11 = extractvalue { i64, i64 } %call20, 0
  %12 = extractvalue { i64, i64 } %call20, 1
  %cmp.i25 = icmp eq i64 %11, %retval.sroa.0.0.i
  %cmp3.i28 = icmp slt i64 %12, %retval.sroa.5.0.i
  %cmp6.i29 = icmp slt i64 %11, %retval.sroa.0.0.i
  %cond.i30 = select i1 %cmp.i25, i1 %cmp3.i28, i1 %cmp6.i29
  br i1 %cond.i30, label %while.body, label %while.end, !llvm.loop !5

while.end:                                        ; preds = %while.body.us, %if.end32, %if.end18
  ret i32 %nSleepTime.0
}